target datalayout = "e-m:e-p270:32:32-p271:32:32-p272:64:64-i64:64-i128:128-f80:128-n8:16:32:64-S128"
target triple = "x86_64-pc-linux-gnu"

%"struct.std::__detail::_List_node_header" = type { %"struct.std::__detail::_List_node_base", i64 }
%"struct.std::__detail::_List_node_base" = type { ptr, ptr }
%"class.glslang::TProgram" = type <{ ptr, ptr, [14 x %"class.std::__cxx11::list.104"], [14 x ptr], [14 x i8], [2 x i8], ptr, ptr, i8, [7 x i8] }>
%"class.std::__cxx11::list.104" = type { %"class.std::__cxx11::_List_base.105" }
%"class.std::__cxx11::_List_base.105" = type { %"struct.std::__cxx11::_List_base<glslang::TShader *, std::allocator<glslang::TShader *>>::_List_impl" }
%"struct.std::__cxx11::_List_base<glslang::TShader *, std::allocator<glslang::TShader *>>::_List_impl" = type { %"struct.std::__detail::_List_node_header" }

; Function Attrs: mustprogress nounwind uwtable
define noundef zeroext i1 @_ZN7glslang8TProgram4linkE11EShMessages(ptr noundef nonnull align 8 dereferenceable(497) %0, i32 noundef %1) #4 align 2 {
  %3 = alloca i1, align 1
  %4 = alloca ptr, align 8
  %5 = alloca i32, align 4
  %6 = alloca i8, align 1
  %7 = alloca i32, align 4
  store ptr %0, ptr %4, align 8
  store i32 %1, ptr %5, align 4
  %8 = load ptr, ptr %4, align 8
  %9 = getelementptr inbounds %"class.glslang::TProgram", ptr %8, i32 0, i32 8
  %10 = load i8, ptr %9, align 8
  %11 = trunc i8 %10 to i1
  br i1 %11, label %12, label %13

12:                                               ; preds = %2
  store i1 false, ptr %3, align 1
  br label %41

13:                                               ; preds = %2
  %14 = getelementptr inbounds %"class.glslang::TProgram", ptr %8, i32 0, i32 8
  store i8 1, ptr %14, align 8
  store i8 0, ptr %6, align 1
  %15 = getelementptr inbounds %"class.glslang::TProgram", ptr %8, i32 0, i32 1
  %16 = load ptr, ptr %15, align 8
  call void @_ZN7glslang22SetThreadPoolAllocatorEPNS_14TPoolAllocatorE(ptr noundef %16)
  store i32 0, ptr %7, align 4
  br label %17

17:                                               ; preds = %26, %13
  %18 = load i32, ptr %7, align 4
  %19 = icmp slt i32 %18, 14
  br i1 %19, label %20, label %29

20:                                               ; preds = %17
  %21 = load i32, ptr %7, align 4
  %22 = load i32, ptr %5, align 4
  %23 = call noundef zeroext i1 @_ZN7glslang8TProgram9linkStageE11EShLanguage11EShMessages(ptr noundef nonnull align 8 dereferenceable(497) %8, i32 noundef %21, i32 noundef %22)
  br i1 %23, label %25, label %24

24:                                               ; preds = %20
  store i8 1, ptr %6, align 1
  br label %25

25:                                               ; preds = %24, %20
  br label %26

26:                                               ; preds = %25
  %27 = load i32, ptr %7, align 4
  %28 = add nsw i32 %27, 1
  store i32 %28, ptr %7, align 4
  br label %17, !llvm.loop !22

29:                                               ; preds = %17
  %30 = load i8, ptr %6, align 1
  %31 = trunc i8 %30 to i1
  br i1 %31, label %37, label %32

32:                                               ; preds = %29
  %33 = load i32, ptr %5, align 4
  %34 = call noundef zeroext i1 @_ZN7glslang8TProgram15crossStageCheckE11EShMessages(ptr noundef nonnull align 8 dereferenceable(497) %8, i32 noundef %33)
  br i1 %34, label %36, label %35

35:                                               ; preds = %32
  store i8 1, ptr %6, align 1
  br label %36

36:                                               ; preds = %35, %32
  br label %37

37:                                               ; preds = %36, %29
  %38 = load i8, ptr %6, align 1
  %39 = trunc i8 %38 to i1
  %40 = xor i1 %39, true
  store i1 %40, ptr %3, align 1
  br label %41

41:                                               ; preds = %37, %12
  %42 = load i1, ptr %3, align 1
  ret i1 %42
}